target datalayout = "e-m:e-p270:32:32-p271:32:32-p272:64:64-i64:64-i128:128-f80:128-n8:16:32:64-S128"
target triple = "x86_64-pc-linux-gnu"

%class.aiMatrix4x4t = type { double, double, double, double, double, double, double, double, double, double, double, double, double, double, double, double }
%"struct.std::_Rb_tree_header" = type { %"struct.std::_Rb_tree_node_base", i64 }
%"struct.std::_Rb_tree_node_base" = type { i32, ptr, ptr, ptr }
%"class.std::__cxx11::basic_string" = type { %"struct.std::__cxx11::basic_string<char>::_Alloc_hider", i64, %union.anon }
%"struct.std::__cxx11::basic_string<char>::_Alloc_hider" = type { ptr }
%union.anon = type { i64, [8 x i8] }
%"class.Assimp::STEP::EXPRESS::DataType" = type { ptr }
%"struct.Assimp::IFC::Schema_2x3::IfcColourRgb" = type { %"struct.Assimp::IFC::Schema_2x3::IfcColourSpecification.base", %"struct.Assimp::STEP::ObjectHelper.base.35", double, double, double, %"class.Assimp::STEP::Object" }
%"struct.Assimp::IFC::Schema_2x3::IfcColourSpecification.base" = type { %"struct.Assimp::STEP::ObjectHelper.base", %"struct.Assimp::STEP::Maybe" }
%"struct.Assimp::STEP::ObjectHelper.base" = type { ptr, %"class.std::bitset" }
%"class.std::bitset" = type { %"struct.std::_Base_bitset" }
%"struct.std::_Base_bitset" = type { i64 }
%"struct.Assimp::STEP::Maybe" = type <{ %"class.std::__cxx11::basic_string", i8, [7 x i8] }>
%"struct.Assimp::STEP::ObjectHelper.base.35" = type { ptr, %"class.std::bitset.34" }
%"class.std::bitset.34" = type { %"struct.std::_Base_bitset" }
%"class.Assimp::STEP::Object" = type { ptr, i64, ptr }
%class.aiColor4t = type { float, float, float, float }
%"struct.Assimp::IFC::ConversionData" = type { double, double, i8, ptr, ptr, ptr, %class.aiMatrix4x4t, %"class.std::vector.37", %"class.std::vector.42", %"class.std::map.47", %"class.std::map.53", ptr, ptr, ptr, %"class.std::set" }
%"class.std::vector.37" = type { %"struct.std::_Vector_base.38" }
%"struct.std::_Vector_base.38" = type { %"struct.std::_Vector_base<aiMesh *, std::allocator<aiMesh *>>::_Vector_impl" }
%"struct.std::_Vector_base<aiMesh *, std::allocator<aiMesh *>>::_Vector_impl" = type { %"struct.std::_Vector_base<aiMesh *, std::allocator<aiMesh *>>::_Vector_impl_data" }
%"struct.std::_Vector_base<aiMesh *, std::allocator<aiMesh *>>::_Vector_impl_data" = type { ptr, ptr, ptr }
%"class.std::vector.42" = type { %"struct.std::_Vector_base.43" }
%"struct.std::_Vector_base.43" = type { %"struct.std::_Vector_base<aiMaterial *, std::allocator<aiMaterial *>>::_Vector_impl" }
%"struct.std::_Vector_base<aiMaterial *, std::allocator<aiMaterial *>>::_Vector_impl" = type { %"struct.std::_Vector_base<aiMaterial *, std::allocator<aiMaterial *>>::_Vector_impl_data" }
%"struct.std::_Vector_base<aiMaterial *, std::allocator<aiMaterial *>>::_Vector_impl_data" = type { ptr, ptr, ptr }
%"class.std::map.47" = type { %"class.std::_Rb_tree.48" }
%"class.std::_Rb_tree.48" = type { %"struct.std::_Rb_tree<Assimp::IFC::ConversionData::MeshCacheIndex, std::pair<const Assimp::IFC::ConversionData::MeshCacheIndex, std::set<unsigned int>>, std::_Select1st<std::pair<const Assimp::IFC::ConversionData::MeshCacheIndex, std::set<unsigned int>>>, std::less<Assimp::IFC::ConversionData::MeshCacheIndex>>::_Rb_tree_impl" }
%"struct.std::_Rb_tree<Assimp::IFC::ConversionData::MeshCacheIndex, std::pair<const Assimp::IFC::ConversionData::MeshCacheIndex, std::set<unsigned int>>, std::_Select1st<std::pair<const Assimp::IFC::ConversionData::MeshCacheIndex, std::set<unsigned int>>>, std::less<Assimp::IFC::ConversionData::MeshCacheIndex>>::_Rb_tree_impl" = type { [8 x i8], %"struct.std::_Rb_tree_header" }
%"class.std::map.53" = type { %"class.std::_Rb_tree.54" }
%"class.std::_Rb_tree.54" = type { %"struct.std::_Rb_tree<const Assimp::IFC::Schema_2x3::IfcSurfaceStyle *, std::pair<const Assimp::IFC::Schema_2x3::IfcSurfaceStyle *const, unsigned int>, std::_Select1st<std::pair<const Assimp::IFC::Schema_2x3::IfcSurfaceStyle *const, unsigned int>>, std::less<const Assimp::IFC::Schema_2x3::IfcSurfaceStyle *>>::_Rb_tree_impl" }
%"struct.std::_Rb_tree<const Assimp::IFC::Schema_2x3::IfcSurfaceStyle *, std::pair<const Assimp::IFC::Schema_2x3::IfcSurfaceStyle *const, unsigned int>, std::_Select1st<std::pair<const Assimp::IFC::Schema_2x3::IfcSurfaceStyle *const, unsigned int>>, std::less<const Assimp::IFC::Schema_2x3::IfcSurfaceStyle *>>::_Rb_tree_impl" = type { [8 x i8], %"struct.std::_Rb_tree_header" }
%"class.std::set" = type { %"class.std::_Rb_tree.59" }
%"class.std::_Rb_tree.59" = type { %"struct.std::_Rb_tree<unsigned long, unsigned long, std::_Identity<unsigned long>, std::less<unsigned long>>::_Rb_tree_impl" }
%"struct.std::_Rb_tree<unsigned long, unsigned long, std::_Identity<unsigned long>, std::less<unsigned long>>::_Rb_tree_impl" = type { [8 x i8], %"struct.std::_Rb_tree_header" }
%"class.Assimp::STEP::EXPRESS::PrimitiveDataType.36" = type { %"class.Assimp::STEP::EXPRESS::DataType", double }
%"class.Assimp::STEP::EXPRESS::PrimitiveDataType.145" = type { %"class.Assimp::STEP::EXPRESS::DataType", i64 }
%"class.Assimp::STEP::LazyObject" = type { i64, ptr, ptr, ptr, ptr }

@.str.21 = private unnamed_addr constant [42 x i8] c"skipping unknown IfcColourOrFactor entity\00", align 1
@_ZTIN6Assimp4STEP7EXPRESS8DataTypeE = linkonce_odr hidden constant { ptr, ptr } { ptr getelementptr inbounds (ptr, ptr @_ZTVN10__cxxabiv117__class_type_infoE, i64 2), ptr @_ZTSN6Assimp4STEP7EXPRESS8DataTypeE }, comdat, align 8
@_ZTIN6Assimp4STEP7EXPRESS6ENTITYE = linkonce_odr hidden constant { ptr, ptr, ptr } { ptr getelementptr inbounds (ptr, ptr @_ZTVN10__cxxabiv120__si_class_type_infoE, i64 2), ptr @_ZTSN6Assimp4STEP7EXPRESS6ENTITYE, ptr @_ZTIN6Assimp4STEP7EXPRESS17PrimitiveDataTypeImEE }, comdat, align 8
@_ZTIN6Assimp4STEP6ObjectE = linkonce_odr hidden constant { ptr, ptr } { ptr getelementptr inbounds (ptr, ptr @_ZTVN10__cxxabiv117__class_type_infoE, i64 2), ptr @_ZTSN6Assimp4STEP6ObjectE }, comdat, align 8

; Function Attrs: mustprogress uwtable
define linkonce_odr hidden noundef nonnull align 8 dereferenceable(24) ptr @_ZNK6Assimp4STEP10LazyObjectdeEv(ptr noundef nonnull align 8 dereferenceable(40) %0) #0 comdat align 2 {
  %2 = alloca ptr, align 8
  store ptr %0, ptr %2, align 8
  %3 = load ptr, ptr %2, align 8
  %4 = getelementptr inbounds nuw %"class.Assimp::STEP::LazyObject", ptr %3, i32 0, i32 4
  %5 = load ptr, ptr %4, align 8
  %6 = icmp ne ptr %5, null
  br i1 %6, label %8, label %7

7:                                                ; preds = %1
  call void @_ZNK6Assimp4STEP10LazyObject8LazyInitEv(ptr noundef nonnull align 8 dereferenceable(40) %3)
  br label %8

8:                                                ; preds = %7, %1
  %9 = getelementptr inbounds nuw %"class.Assimp::STEP::LazyObject", ptr %3, i32 0, i32 4
  %10 = load ptr, ptr %9, align 8
  ret ptr %10
}

; Function Attrs: mustprogress nounwind uwtable
define linkonce_odr hidden noundef ptr @_ZNK6Assimp4STEP6Object5ToPtrINS_3IFC10Schema_2x312IfcColourRgbEEEPKT_v(ptr noundef nonnull align 8 dereferenceable(24) %0) #1 comdat align 2 {
  %2 = alloca ptr, align 8
  store ptr %0, ptr %2, align 8
  %3 = load ptr, ptr %2, align 8
  %4 = icmp eq ptr %3, null
  br i1 %4, label %7, label %5

5:                                                ; preds = %1
  %6 = call ptr @__dynamic_cast(ptr %3, ptr @_ZTIN6Assimp4STEP6ObjectE, ptr @_ZTIN6Assimp3IFC10Schema_2x312IfcColourRgbE, i64 -1) #20
  br label %8

7:                                                ; preds = %1
  br label %8

8:                                                ; preds = %7, %5
  %9 = phi ptr [ %6, %5 ], [ null, %7 ]
  ret ptr %9
}

; Function Attrs: mustprogress uwtable
define linkonce_odr hidden noundef ptr @_ZNK6Assimp4STEP10LazyObjectptEv(ptr noundef nonnull align 8 dereferenceable(40) %0) #0 comdat align 2 {
  %2 = alloca ptr, align 8
  store ptr %0, ptr %2, align 8
  %3 = load ptr, ptr %2, align 8
  %4 = call noundef nonnull align 8 dereferenceable(24) ptr @_ZNK6Assimp4STEP10LazyObjectdeEv(ptr noundef nonnull align 8 dereferenceable(40) %3)
  ret ptr %4
}

; Function Attrs: mustprogress nounwind uwtable
define linkonce_odr hidden noundef nonnull align 8 dereferenceable(8) ptr @_ZNK6Assimp4STEP7EXPRESS17PrimitiveDataTypeImEcvRKmEv(ptr noundef nonnull align 8 dereferenceable(16) %0) #1 comdat align 2 {
  %2 = alloca ptr, align 8
  store ptr %0, ptr %2, align 8
  %3 = load ptr, ptr %2, align 8
  %4 = getelementptr inbounds nuw %"class.Assimp::STEP::EXPRESS::PrimitiveDataType.145", ptr %3, i32 0, i32 1
  ret ptr %4
}

; Function Attrs: mustprogress nounwind uwtable
define linkonce_odr hidden noundef nonnull align 8 dereferenceable(384) ptr @_ZN6Assimp4STEP6CoupleINS_3IFC10Schema_2x312IfcColourRgbEKNS0_2DBEEERT0_S8_(ptr noundef nonnull align 8 dereferenceable(384) %0) #1 comdat {
  %2 = alloca ptr, align 8
  store ptr %0, ptr %2, align 8
  %3 = load ptr, ptr %2, align 8
  ret ptr %3
}

; Function Attrs: mustprogress nounwind uwtable
define linkonce_odr hidden noundef ptr @_ZNK6Assimp4STEP7EXPRESS8DataType5ToPtrINS1_6ENTITYEEEPKT_v(ptr noundef nonnull align 8 dereferenceable(8) %0) #1 comdat align 2 {
  %2 = alloca ptr, align 8
  store ptr %0, ptr %2, align 8
  %3 = load ptr, ptr %2, align 8
  %4 = icmp eq ptr %3, null
  br i1 %4, label %7, label %5

5:                                                ; preds = %1
  %6 = call ptr @__dynamic_cast(ptr %3, ptr @_ZTIN6Assimp4STEP7EXPRESS8DataTypeE, ptr @_ZTIN6Assimp4STEP7EXPRESS6ENTITYE, i64 0) #20
  br label %8

7:                                                ; preds = %1
  br label %8

8:                                                ; preds = %7, %5
  %9 = phi ptr [ %6, %5 ], [ null, %7 ]
  ret ptr %9
}

; Function Attrs: mustprogress uwtable
define linkonce_odr hidden void @_ZN6Assimp12LogFunctionsINS_11IFCImporterEE7LogWarnIJRA42_KcEEEvDpOT_(ptr noundef nonnull align 1 dereferenceable(42) %0) #0 comdat align 2 {
  %2 = alloca ptr, align 8
  %3 = alloca ptr, align 8
  store ptr %0, ptr %2, align 8
  %4 = call noundef zeroext i1 @_ZN6Assimp13DefaultLogger12isNullLoggerEv()
  br i1 %4, label %9, label %5

5:                                                ; preds = %1
  %6 = call noundef ptr @_ZN6Assimp13DefaultLogger3getEv()
  call void @llvm.lifetime.start.p0(i64 8, ptr %3) #20
  %7 = call noundef ptr @_ZN6Assimp12LogFunctionsINS_11IFCImporterEE6PrefixEv()
  store ptr %7, ptr %3, align 8
  %8 = load ptr, ptr %2, align 8
  call void @_ZN6Assimp6Logger4warnIJPKcRA42_S2_EEEvDpOT_(ptr noundef nonnull align 8 dereferenceable(12) %6, ptr noundef nonnull align 8 dereferenceable(8) %3, ptr noundef nonnull align 1 dereferenceable(42) %8)
  call void @llvm.lifetime.end.p0(i64 8, ptr %3) #20
  br label %9

9:                                                ; preds = %5, %1
  ret void
}

; Function Attrs: mustprogress nounwind uwtable
define hidden void @_ZN6Assimp3IFC12ConvertColorER9aiColor4tIfERKNS0_10Schema_2x312IfcColourRgbE(ptr noundef nonnull align 4 dereferenceable(16) %0, ptr noundef nonnull align 8 dereferenceable(96) %1) #1 {
  %3 = alloca ptr, align 8
  %4 = alloca ptr, align 8
  store ptr %0, ptr %3, align 8
  store ptr %1, ptr %4, align 8
  %5 = load ptr, ptr %4, align 8
  %6 = getelementptr inbounds nuw %"struct.Assimp::IFC::Schema_2x3::IfcColourRgb", ptr %5, i32 0, i32 2
  %7 = load double, ptr %6, align 8
  %8 = fptrunc double %7 to float
  %9 = load ptr, ptr %3, align 8
  %10 = getelementptr inbounds nuw %class.aiColor4t, ptr %9, i32 0, i32 0
  store float %8, ptr %10, align 4
  %11 = load ptr, ptr %4, align 8
  %12 = getelementptr inbounds nuw %"struct.Assimp::IFC::Schema_2x3::IfcColourRgb", ptr %11, i32 0, i32 3
  %13 = load double, ptr %12, align 8
  %14 = fptrunc double %13 to float
  %15 = load ptr, ptr %3, align 8
  %16 = getelementptr inbounds nuw %class.aiColor4t, ptr %15, i32 0, i32 1
  store float %14, ptr %16, align 4
  %17 = load ptr, ptr %4, align 8
  %18 = getelementptr inbounds nuw %"struct.Assimp::IFC::Schema_2x3::IfcColourRgb", ptr %17, i32 0, i32 4
  %19 = load double, ptr %18, align 8
  %20 = fptrunc double %19 to float
  %21 = load ptr, ptr %3, align 8
  %22 = getelementptr inbounds nuw %class.aiColor4t, ptr %21, i32 0, i32 2
  store float %20, ptr %22, align 4
  %23 = load ptr, ptr %3, align 8
  %24 = getelementptr inbounds nuw %class.aiColor4t, ptr %23, i32 0, i32 3
  store float 1.000000e+00, ptr %24, align 4
  ret void
}

; Function Attrs: mustprogress uwtable
define linkonce_odr hidden noundef ptr @_ZNK6Assimp4STEP7EXPRESS8DataType16ResolveSelectPtrINS_3IFC10Schema_2x312IfcColourRgbEEEPKT_RKNS0_2DBE(ptr noundef nonnull align 8 dereferenceable(8) %0, ptr noundef nonnull align 8 dereferenceable(384) %1) #0 comdat align 2 {
  %3 = alloca ptr, align 8
  %4 = alloca ptr, align 8
  %5 = alloca ptr, align 8
  store ptr %0, ptr %3, align 8
  store ptr %1, ptr %4, align 8
  %6 = load ptr, ptr %3, align 8
  call void @llvm.lifetime.start.p0(i64 8, ptr %5) #20
  %7 = call noundef ptr @_ZNK6Assimp4STEP7EXPRESS8DataType5ToPtrINS1_6ENTITYEEEPKT_v(ptr noundef nonnull align 8 dereferenceable(8) %6)
  store ptr %7, ptr %5, align 8
  %8 = load ptr, ptr %5, align 8
  %9 = icmp ne ptr %8, null
  br i1 %9, label %10, label %19

10:                                               ; preds = %2
  %11 = load ptr, ptr %4, align 8
  %12 = call noundef nonnull align 8 dereferenceable(384) ptr @_ZN6Assimp4STEP6CoupleINS_3IFC10Schema_2x312IfcColourRgbEKNS0_2DBEEERT0_S8_(ptr noundef nonnull align 8 dereferenceable(384) %11)
  %13 = load ptr, ptr %5, align 8
  %14 = call noundef nonnull align 8 dereferenceable(8) ptr @_ZNK6Assimp4STEP7EXPRESS17PrimitiveDataTypeImEcvRKmEv(ptr noundef nonnull align 8 dereferenceable(16) %13)
  %15 = load i64, ptr %14, align 8
  %16 = call noundef nonnull align 8 dereferenceable(40) ptr @_ZNK6Assimp4STEP2DB13MustGetObjectEm(ptr noundef nonnull align 8 dereferenceable(384) %12, i64 noundef %15)
  %17 = call noundef ptr @_ZNK6Assimp4STEP10LazyObjectptEv(ptr noundef nonnull align 8 dereferenceable(40) %16)
  %18 = call noundef ptr @_ZNK6Assimp4STEP6Object5ToPtrINS_3IFC10Schema_2x312IfcColourRgbEEEPKT_v(ptr noundef nonnull align 8 dereferenceable(24) %17)
  br label %20

19:                                               ; preds = %2
  br label %20

20:                                               ; preds = %19, %10
  %21 = phi ptr [ %18, %10 ], [ null, %19 ]
  call void @llvm.lifetime.end.p0(i64 8, ptr %5) #20
  ret ptr %21
}

; Function Attrs: mustprogress nounwind uwtable
define linkonce_odr hidden noundef nonnull align 8 dereferenceable(8) ptr @_ZNK6Assimp4STEP7EXPRESS17PrimitiveDataTypeIdEcvRKdEv(ptr noundef nonnull align 8 dereferenceable(16) %0) #1 comdat align 2 {
  %2 = alloca ptr, align 8
  store ptr %0, ptr %2, align 8
  %3 = load ptr, ptr %2, align 8
  %4 = getelementptr inbounds nuw %"class.Assimp::STEP::EXPRESS::PrimitiveDataType.36", ptr %3, i32 0, i32 1
  ret ptr %4
}

; Function Attrs: mustprogress nounwind uwtable
define linkonce_odr hidden noundef ptr @_ZNK6Assimp4STEP7EXPRESS8DataType5ToPtrINS1_17PrimitiveDataTypeIdEEEEPKT_v(ptr noundef nonnull align 8 dereferenceable(8) %0) #1 comdat align 2 {
  %2 = alloca ptr, align 8
  store ptr %0, ptr %2, align 8
  %3 = load ptr, ptr %2, align 8
  %4 = icmp eq ptr %3, null
  br i1 %4, label %7, label %5

5:                                                ; preds = %1
  %6 = call ptr @__dynamic_cast(ptr %3, ptr @_ZTIN6Assimp4STEP7EXPRESS8DataTypeE, ptr @_ZTIN6Assimp4STEP7EXPRESS17PrimitiveDataTypeIdEE, i64 0) #20
  br label %8

7:                                                ; preds = %1
  br label %8

8:                                                ; preds = %7, %5
  %9 = phi ptr [ %6, %5 ], [ null, %7 ]
  ret ptr %9
}

; Function Attrs: mustprogress uwtable
define hidden void @_ZN6Assimp3IFC12ConvertColorER9aiColor4tIfERKNS_4STEP7EXPRESS8DataTypeERNS0_14ConversionDataEPKS2_(ptr noundef nonnull align 4 dereferenceable(16) %0, ptr noundef nonnull align 8 dereferenceable(8) %1, ptr noundef nonnull align 8 dereferenceable(392) %2, ptr noundef %3) #0 {
  %5 = alloca ptr, align 8
  %6 = alloca ptr, align 8
  %7 = alloca ptr, align 8
  %8 = alloca ptr, align 8
  %9 = alloca ptr, align 8
  %10 = alloca ptr, align 8
  store ptr %0, ptr %5, align 8
  store ptr %1, ptr %6, align 8
  store ptr %2, ptr %7, align 8
  store ptr %3, ptr %8, align 8
  call void @llvm.lifetime.start.p0(i64 8, ptr %9) #20
  %11 = load ptr, ptr %6, align 8
  %12 = call noundef ptr @_ZNK6Assimp4STEP7EXPRESS8DataType5ToPtrINS1_17PrimitiveDataTypeIdEEEEPKT_v(ptr noundef nonnull align 8 dereferenceable(8) %11)
  store ptr %12, ptr %9, align 8
  %13 = load ptr, ptr %9, align 8
  %14 = icmp ne ptr %13, null
  br i1 %14, label %15, label %59

15:                                               ; preds = %4
  %16 = load ptr, ptr %9, align 8
  %17 = call noundef nonnull align 8 dereferenceable(8) ptr @_ZNK6Assimp4STEP7EXPRESS17PrimitiveDataTypeIdEcvRKdEv(ptr noundef nonnull align 8 dereferenceable(16) %16)
  %18 = load double, ptr %17, align 8
  %19 = fptrunc double %18 to float
  %20 = load ptr, ptr %5, align 8
  %21 = getelementptr inbounds nuw %class.aiColor4t, ptr %20, i32 0, i32 2
  store float %19, ptr %21, align 4
  %22 = load ptr, ptr %5, align 8
  %23 = getelementptr inbounds nuw %class.aiColor4t, ptr %22, i32 0, i32 1
  store float %19, ptr %23, align 4
  %24 = load ptr, ptr %5, align 8
  %25 = getelementptr inbounds nuw %class.aiColor4t, ptr %24, i32 0, i32 0
  store float %19, ptr %25, align 4
  %26 = load ptr, ptr %8, align 8
  %27 = icmp ne ptr %26, null
  br i1 %27, label %28, label %55

28:                                               ; preds = %15
  %29 = load ptr, ptr %8, align 8
  %30 = getelementptr inbounds nuw %class.aiColor4t, ptr %29, i32 0, i32 0
  %31 = load float, ptr %30, align 4
  %32 = load ptr, ptr %5, align 8
  %33 = getelementptr inbounds nuw %class.aiColor4t, ptr %32, i32 0, i32 0
  %34 = load float, ptr %33, align 4
  %35 = fmul float %34, %31
  store float %35, ptr %33, align 4
  %36 = load ptr, ptr %8, align 8
  %37 = getelementptr inbounds nuw %class.aiColor4t, ptr %36, i32 0, i32 1
  %38 = load float, ptr %37, align 4
  %39 = load ptr, ptr %5, align 8
  %40 = getelementptr inbounds nuw %class.aiColor4t, ptr %39, i32 0, i32 1
  %41 = load float, ptr %40, align 4
  %42 = fmul float %41, %38
  store float %42, ptr %40, align 4
  %43 = load ptr, ptr %8, align 8
  %44 = getelementptr inbounds nuw %class.aiColor4t, ptr %43, i32 0, i32 2
  %45 = load float, ptr %44, align 4
  %46 = load ptr, ptr %5, align 8
  %47 = getelementptr inbounds nuw %class.aiColor4t, ptr %46, i32 0, i32 2
  %48 = load float, ptr %47, align 4
  %49 = fmul float %48, %45
  store float %49, ptr %47, align 4
  %50 = load ptr, ptr %8, align 8
  %51 = getelementptr inbounds nuw %class.aiColor4t, ptr %50, i32 0, i32 3
  %52 = load float, ptr %51, align 4
  %53 = load ptr, ptr %5, align 8
  %54 = getelementptr inbounds nuw %class.aiColor4t, ptr %53, i32 0, i32 3
  store float %52, ptr %54, align 4
  br label %58

55:                                               ; preds = %15
  %56 = load ptr, ptr %5, align 8
  %57 = getelementptr inbounds nuw %class.aiColor4t, ptr %56, i32 0, i32 3
  store float 1.000000e+00, ptr %57, align 4
  br label %58

58:                                               ; preds = %55, %28
  br label %72

59:                                               ; preds = %4
  call void @llvm.lifetime.start.p0(i64 8, ptr %10) #20
  %60 = load ptr, ptr %6, align 8
  %61 = load ptr, ptr %7, align 8
  %62 = getelementptr inbounds nuw %"struct.Assimp::IFC::ConversionData", ptr %61, i32 0, i32 3
  %63 = load ptr, ptr %62, align 8
  %64 = call noundef ptr @_ZNK6Assimp4STEP7EXPRESS8DataType16ResolveSelectPtrINS_3IFC10Schema_2x312IfcColourRgbEEEPKT_RKNS0_2DBE(ptr noundef nonnull align 8 dereferenceable(8) %60, ptr noundef nonnull align 8 dereferenceable(384) %63)
  store ptr %64, ptr %10, align 8
  %65 = load ptr, ptr %10, align 8
  %66 = icmp ne ptr %65, null
  br i1 %66, label %67, label %70

67:                                               ; preds = %59
  %68 = load ptr, ptr %5, align 8
  %69 = load ptr, ptr %10, align 8
  call void @_ZN6Assimp3IFC12ConvertColorER9aiColor4tIfERKNS0_10Schema_2x312IfcColourRgbE(ptr noundef nonnull align 4 dereferenceable(16) %68, ptr noundef nonnull align 8 dereferenceable(96) %69)
  br label %71

70:                                               ; preds = %59
  call void @_ZN6Assimp12LogFunctionsINS_11IFCImporterEE7LogWarnIJRA42_KcEEEvDpOT_(ptr noundef nonnull align 1 dereferenceable(42) @.str.21)
  br label %71

71:                                               ; preds = %70, %67
  call void @llvm.lifetime.end.p0(i64 8, ptr %10) #20
  br label %72

72:                                               ; preds = %71, %58
  call void @llvm.lifetime.end.p0(i64 8, ptr %9) #20
  ret void
}