; Function Attrs: mustprogress uwtable
define hidden void @_ZN6Assimp3IFC12ConvertColorER9aiColor4tIfERKNS_4STEP7EXPRESS8DataTypeERNS0_14ConversionDataEPKS2_(ptr noundef nonnull writeonly align 4 captures(none) dereferenceable(16) %0, ptr noundef nonnull readonly align 8 dereferenceable(8) %1, ptr noundef nonnull readonly align 8 captures(none) dereferenceable(392) %2, ptr noundef readonly captures(address_is_null) %3) local_unnamed_addr #7 {
  %5 = alloca ptr, align 8
  %6 = tail call noundef ptr @__dynamic_cast(ptr nonnull align 8 dereferenceable(8) %1, ptr nonnull @_ZTIN6Assimp4STEP7EXPRESS8DataTypeE, ptr nonnull @_ZTIN6Assimp4STEP7EXPRESS17PrimitiveDataTypeIdEE, i64 0) #25
  %.not = icmp eq ptr %6, null
  br i1 %.not, label %27, label %7

7:                                                ; preds = %4
  %8 = getelementptr inbounds nuw i8, ptr %6, i64 8
  %9 = load double, ptr %8, align 8
  %10 = fptrunc double %9 to float
  %11 = getelementptr inbounds nuw i8, ptr %0, i64 8
  store float %10, ptr %11, align 4
  %12 = getelementptr inbounds nuw i8, ptr %0, i64 4
  store float %10, ptr %12, align 4
  store float %10, ptr %0, align 4
  %.not24 = icmp eq ptr %3, null
  br i1 %.not24, label %25, label %13

13:                                               ; preds = %7
  %14 = load float, ptr %3, align 4
  %15 = fmul float %14, %10
  store float %15, ptr %0, align 4
  %16 = getelementptr inbounds nuw i8, ptr %3, i64 4
  %17 = load float, ptr %16, align 4
  %18 = fmul float %17, %10
  store float %18, ptr %12, align 4
  %19 = getelementptr inbounds nuw i8, ptr %3, i64 8
  %20 = load float, ptr %19, align 4
  %21 = fmul float %20, %10
  store float %21, ptr %11, align 4
  %22 = getelementptr inbounds nuw i8, ptr %3, i64 12
  %23 = load float, ptr %22, align 4
  %24 = getelementptr inbounds nuw i8, ptr %0, i64 12
  store float %23, ptr %24, align 4
  br label %_ZN6Assimp12LogFunctionsINS_11IFCImporterEE7LogWarnIJRA42_KcEEEvDpOT_.exit

25:                                               ; preds = %7
  %26 = getelementptr inbounds nuw i8, ptr %0, i64 12
  store float 1.000000e+00, ptr %26, align 4
  br label %_ZN6Assimp12LogFunctionsINS_11IFCImporterEE7LogWarnIJRA42_KcEEEvDpOT_.exit

27:                                               ; preds = %4
  %28 = tail call noundef ptr @__dynamic_cast(ptr nonnull align 8 dereferenceable(8) %1, ptr nonnull @_ZTIN6Assimp4STEP7EXPRESS8DataTypeE, ptr nonnull @_ZTIN6Assimp4STEP7EXPRESS6ENTITYE, i64 0) #25
  %.not.i = icmp eq ptr %28, null
  br i1 %.not.i, label %_ZNK6Assimp4STEP7EXPRESS8DataType16ResolveSelectPtrINS_3IFC10Schema_2x312IfcColourRgbEEEPKT_RKNS0_2DBE.exit.thread, label %29

29:                                               ; preds = %27
  %30 = getelementptr inbounds nuw i8, ptr %2, i64 24
  %31 = load ptr, ptr %30, align 8
  %32 = getelementptr inbounds nuw i8, ptr %28, i64 8
  %33 = load i64, ptr %32, align 8
  %34 = tail call noundef nonnull align 8 dereferenceable(40) ptr @_ZNK6Assimp4STEP2DB13MustGetObjectEm(ptr noundef nonnull align 8 dereferenceable(384) %31, i64 noundef %33)
  %35 = getelementptr inbounds nuw i8, ptr %34, i64 32
  %36 = load ptr, ptr %35, align 8
  %.not.i.i.i = icmp eq ptr %36, null
  br i1 %.not.i.i.i, label %37, label %_ZNK6Assimp4STEP7EXPRESS8DataType16ResolveSelectPtrINS_3IFC10Schema_2x312IfcColourRgbEEEPKT_RKNS0_2DBE.exit

37:                                               ; preds = %29
  tail call void @_ZNK6Assimp4STEP10LazyObject8LazyInitEv(ptr noundef nonnull align 8 dereferenceable(40) %34)
  %.pre.i.i.i = load ptr, ptr %35, align 8
  br label %_ZNK6Assimp4STEP7EXPRESS8DataType16ResolveSelectPtrINS_3IFC10Schema_2x312IfcColourRgbEEEPKT_RKNS0_2DBE.exit

_ZNK6Assimp4STEP7EXPRESS8DataType16ResolveSelectPtrINS_3IFC10Schema_2x312IfcColourRgbEEEPKT_RKNS0_2DBE.exit: ; preds = %29, %37
  %38 = phi ptr [ %.pre.i.i.i, %37 ], [ %36, %29 ]
  %39 = tail call noundef ptr @__dynamic_cast(ptr nonnull align 8 dereferenceable(24) %38, ptr nonnull @_ZTIN6Assimp4STEP6ObjectE, ptr nonnull @_ZTIN6Assimp3IFC10Schema_2x312IfcColourRgbE, i64 -1) #25
  %.not23 = icmp eq ptr %39, null
  br i1 %.not23, label %_ZNK6Assimp4STEP7EXPRESS8DataType16ResolveSelectPtrINS_3IFC10Schema_2x312IfcColourRgbEEEPKT_RKNS0_2DBE.exit.thread, label %40

40:                                               ; preds = %_ZNK6Assimp4STEP7EXPRESS8DataType16ResolveSelectPtrINS_3IFC10Schema_2x312IfcColourRgbEEEPKT_RKNS0_2DBE.exit
  %41 = getelementptr inbounds nuw i8, ptr %39, i64 72
  %42 = load double, ptr %41, align 8
  %43 = fptrunc double %42 to float
  store float %43, ptr %0, align 4
  %44 = getelementptr inbounds nuw i8, ptr %39, i64 80
  %45 = load double, ptr %44, align 8
  %46 = fptrunc double %45 to float
  %47 = getelementptr inbounds nuw i8, ptr %0, i64 4
  store float %46, ptr %47, align 4
  %48 = getelementptr inbounds nuw i8, ptr %39, i64 88
  %49 = load double, ptr %48, align 8
  %50 = fptrunc double %49 to float
  %51 = getelementptr inbounds nuw i8, ptr %0, i64 8
  store float %50, ptr %51, align 4
  %52 = getelementptr inbounds nuw i8, ptr %0, i64 12
  store float 1.000000e+00, ptr %52, align 4
  br label %_ZN6Assimp12LogFunctionsINS_11IFCImporterEE7LogWarnIJRA42_KcEEEvDpOT_.exit

_ZNK6Assimp4STEP7EXPRESS8DataType16ResolveSelectPtrINS_3IFC10Schema_2x312IfcColourRgbEEEPKT_RKNS0_2DBE.exit.thread: ; preds = %27, %_ZNK6Assimp4STEP7EXPRESS8DataType16ResolveSelectPtrINS_3IFC10Schema_2x312IfcColourRgbEEEPKT_RKNS0_2DBE.exit
  %53 = tail call noundef zeroext i1 @_ZN6Assimp13DefaultLogger12isNullLoggerEv()
  br i1 %53, label %_ZN6Assimp12LogFunctionsINS_11IFCImporterEE7LogWarnIJRA42_KcEEEvDpOT_.exit, label %54

54:                                               ; preds = %_ZNK6Assimp4STEP7EXPRESS8DataType16ResolveSelectPtrINS_3IFC10Schema_2x312IfcColourRgbEEEPKT_RKNS0_2DBE.exit.thread
  %55 = tail call noundef ptr @_ZN6Assimp13DefaultLogger3getEv()
  call void @llvm.lifetime.start.p0(i64 8, ptr nonnull %5) #25
  %56 = tail call noundef ptr @_ZN6Assimp12LogFunctionsINS_11IFCImporterEE6PrefixEv()
  store ptr %56, ptr %5, align 8
  call void @_ZN6Assimp6Logger4warnIJPKcRA42_S2_EEEvDpOT_(ptr noundef nonnull align 8 dereferenceable(12) %55, ptr noundef nonnull align 8 dereferenceable(8) %5, ptr noundef nonnull align 1 dereferenceable(42) @.str.21)
  call void @llvm.lifetime.end.p0(i64 8, ptr nonnull %5) #25
  br label %_ZN6Assimp12LogFunctionsINS_11IFCImporterEE7LogWarnIJRA42_KcEEEvDpOT_.exit

_ZN6Assimp12LogFunctionsINS_11IFCImporterEE7LogWarnIJRA42_KcEEEvDpOT_.exit: ; preds = %54, %_ZNK6Assimp4STEP7EXPRESS8DataType16ResolveSelectPtrINS_3IFC10Schema_2x312IfcColourRgbEEEPKT_RKNS0_2DBE.exit.thread, %40, %13, %25
  ret void
}